target datalayout = "e-m:e-p270:32:32-p271:32:32-p272:64:64-i64:64-i128:128-f80:128-n8:16:32:64-S128"
target triple = "x86_64-pc-linux-gnu"

@hf_ecmp_program_status_target = internal global i32 0, align 4
@hf_ecmp_program_status_status = internal global i32 0, align 4
@hf_ecmp_program_status_additional_items = internal global i32 0, align 4
@ett_ecmp_program_status_message = internal global i32 0, align 4
@.str.651 = private unnamed_addr constant [24 x i8] c"Program Status: (Query)\00", align 1
@.str.652 = private unnamed_addr constant [27 x i8] c"Program Status: (Response)\00", align 1

; Function Attrs: null_pointer_is_valid sspstrong uwtable
define internal void @program_status(i32 noundef %0, i1 noundef zeroext %1, ptr noundef %2, ptr noundef %3) #0 {
  %5 = alloca i32, align 4
  %6 = alloca i8, align 1
  %7 = alloca ptr, align 8
  %8 = alloca ptr, align 8
  %9 = alloca ptr, align 8
  store i32 %0, ptr %5, align 4
  %10 = zext i1 %1 to i8
  store i8 %10, ptr %6, align 1
  store ptr %2, ptr %7, align 8
  store ptr %3, ptr %8, align 8
  call void @llvm.lifetime.start.p0(i64 8, ptr %9) #3
  store ptr null, ptr %9, align 8
  %11 = load i8, ptr %6, align 1, !range !6, !noundef !7
  %12 = trunc i8 %11 to i1
  br i1 %12, label %13, label %24

13:                                               ; preds = %4
  %14 = load ptr, ptr %8, align 8
  %15 = load ptr, ptr %7, align 8
  %16 = load i32, ptr %5, align 4
  %17 = load i32, ptr @ett_ecmp_program_status_message, align 4
  %18 = call ptr @proto_tree_add_subtree(ptr noundef %14, ptr noundef %15, i32 noundef %16, i32 noundef 1, i32 noundef %17, ptr noundef null, ptr noundef @.str.651)
  store ptr %18, ptr %9, align 8
  %19 = load ptr, ptr %9, align 8
  %20 = load i32, ptr @hf_ecmp_program_status_target, align 4
  %21 = load ptr, ptr %7, align 8
  %22 = load i32, ptr %5, align 4
  %23 = call ptr @proto_tree_add_item(ptr noundef %19, i32 noundef %20, ptr noundef %21, i32 noundef %22, i32 noundef 1, i32 noundef 0)
  br label %42

24:                                               ; preds = %4
  %25 = load ptr, ptr %8, align 8
  %26 = load ptr, ptr %7, align 8
  %27 = load i32, ptr %5, align 4
  %28 = load i32, ptr @ett_ecmp_program_status_message, align 4
  %29 = call ptr @proto_tree_add_subtree(ptr noundef %25, ptr noundef %26, i32 noundef %27, i32 noundef 2, i32 noundef %28, ptr noundef null, ptr noundef @.str.652)
  store ptr %29, ptr %9, align 8
  %30 = load ptr, ptr %9, align 8
  %31 = load i32, ptr @hf_ecmp_program_status_status, align 4
  %32 = load ptr, ptr %7, align 8
  %33 = load i32, ptr %5, align 4
  %34 = call ptr @proto_tree_add_item(ptr noundef %30, i32 noundef %31, ptr noundef %32, i32 noundef %33, i32 noundef 1, i32 noundef 0)
  %35 = load i32, ptr %5, align 4
  %36 = add i32 %35, 1
  store i32 %36, ptr %5, align 4
  %37 = load ptr, ptr %9, align 8
  %38 = load i32, ptr @hf_ecmp_program_status_additional_items, align 4
  %39 = load ptr, ptr %7, align 8
  %40 = load i32, ptr %5, align 4
  %41 = call ptr @proto_tree_add_item(ptr noundef %37, i32 noundef %38, ptr noundef %39, i32 noundef %40, i32 noundef 1, i32 noundef 0)
  br label %42

42:                                               ; preds = %24, %13
  call void @llvm.lifetime.end.p0(i64 8, ptr %9) #3
  ret void
}