; Function Attrs: null_pointer_is_valid sspstrong uwtable
define internal fastcc void @program_status(i32 noundef %0, i1 noundef zeroext %1, ptr noundef %2, ptr noundef %3) unnamed_addr #0 {
  %5 = load i32, ptr @ett_ecmp_program_status_message, align 4
  br i1 %1, label %6, label %10

6:                                                ; preds = %4
  %7 = tail call ptr @proto_tree_add_subtree(ptr noundef %3, ptr noundef %2, i32 noundef %0, i32 noundef 1, i32 noundef %5, ptr noundef null, ptr noundef nonnull @.str.651)
  %8 = load i32, ptr @hf_ecmp_program_status_target, align 4
  %9 = tail call ptr @proto_tree_add_item(ptr noundef %7, i32 noundef %8, ptr noundef %2, i32 noundef %0, i32 noundef 1, i32 noundef 0)
  br label %17

10:                                               ; preds = %4
  %11 = tail call ptr @proto_tree_add_subtree(ptr noundef %3, ptr noundef %2, i32 noundef %0, i32 noundef 2, i32 noundef %5, ptr noundef null, ptr noundef nonnull @.str.652)
  %12 = load i32, ptr @hf_ecmp_program_status_status, align 4
  %13 = tail call ptr @proto_tree_add_item(ptr noundef %11, i32 noundef %12, ptr noundef %2, i32 noundef %0, i32 noundef 1, i32 noundef 0)
  %14 = add i32 %0, 1
  %15 = load i32, ptr @hf_ecmp_program_status_additional_items, align 4
  %16 = tail call ptr @proto_tree_add_item(ptr noundef %11, i32 noundef %15, ptr noundef %2, i32 noundef %14, i32 noundef 1, i32 noundef 0)
  br label %17

17:                                               ; preds = %10, %6
  ret void
}